; ModuleID = 'bench/openusd/original/error.cpp.ll'
source_filename = "bench/openusd/original/error.cpp.ll"
target datalayout = "e-m:e-p270:32:32-p271:32:32-p272:64:64-i64:64-i128:128-f80:128-n8:16:32:64-S128"
target triple = "x86_64-pc-linux-gnu"

@stderr = external local_unnamed_addr global ptr, align 8
@.str = private unnamed_addr constant [16 x i8] c" ArchError: %s\0A\00", align 1
@.str.1 = private unnamed_addr constant [16 x i8] c"  Function: %s\0A\00", align 1
@.str.2 = private unnamed_addr constant [16 x i8] c"      File: %s\0A\00", align 1
@.str.3 = private unnamed_addr constant [17 x i8] c"      Line: %zu\0A\00", align 1
@.str.4 = private unnamed_addr constant [15 x i8] c" ArchWarn: %s\0A\00", align 1
@.str.5 = private unnamed_addr constant [15 x i8] c" Function: %s\0A\00", align 1
@.str.6 = private unnamed_addr constant [15 x i8] c"     File: %s\0A\00", align 1
@.str.7 = private unnamed_addr constant [16 x i8] c"     Line: %zu\0A\00", align 1

; Function Attrs: cold mustprogress noreturn uwtable
define void @_ZN32pxrInternal_v0_24__pxrReserved__10Arch_ErrorEPKcS1_mS1_(ptr noundef %0, ptr noundef %1, i64 noundef %2, ptr noundef %3) local_unnamed_addr #0 {
  %5 = load ptr, ptr @stderr, align 8
  %6 = tail call i32 (ptr, ptr, ...) @fprintf(ptr noundef %5, ptr noundef nonnull @.str, ptr noundef %0) #4
  %7 = load ptr, ptr @stderr, align 8
  %8 = tail call i32 (ptr, ptr, ...) @fprintf(ptr noundef %7, ptr noundef nonnull @.str.1, ptr noundef %1) #4
  %9 = load ptr, ptr @stderr, align 8
  %10 = tail call i32 (ptr, ptr, ...) @fprintf(ptr noundef %9, ptr noundef nonnull @.str.2, ptr noundef %3) #4
  %11 = load ptr, ptr @stderr, align 8
  %12 = tail call i32 (ptr, ptr, ...) @fprintf(ptr noundef %11, ptr noundef nonnull @.str.3, i64 noundef %2) #4
  tail call void @_ZN32pxrInternal_v0_24__pxrReserved__9ArchAbortEb(i1 noundef zeroext true) #5
  unreachable
}

; Function Attrs: nofree nounwind
declare noundef i32 @fprintf(ptr noundef captures(none), ptr noundef readonly captures(none), ...) local_unnamed_addr #1

; Function Attrs: noreturn
declare void @_ZN32pxrInternal_v0_24__pxrReserved__9ArchAbortEb(i1 noundef zeroext) local_unnamed_addr #2

; Function Attrs: cold mustprogress nofree nounwind uwtable
define void @_ZN32pxrInternal_v0_24__pxrReserved__12Arch_WarningEPKcS1_mS1_(ptr noundef %0, ptr noundef %1, i64 noundef %2, ptr noundef %3) local_unnamed_addr #3 {
  %5 = load ptr, ptr @stderr, align 8
  %6 = tail call i32 (ptr, ptr, ...) @fprintf(ptr noundef %5, ptr noundef nonnull @.str.4, ptr noundef %0) #4
  %7 = load ptr, ptr @stderr, align 8
  %8 = tail call i32 (ptr, ptr, ...) @fprintf(ptr noundef %7, ptr noundef nonnull @.str.5, ptr noundef %1) #4
  %9 = load ptr, ptr @stderr, align 8
  %10 = tail call i32 (ptr, ptr, ...) @fprintf(ptr noundef %9, ptr noundef nonnull @.str.6, ptr noundef %3) #4
  %11 = load ptr, ptr @stderr, align 8
  %12 = tail call i32 (ptr, ptr, ...) @fprintf(ptr noundef %11, ptr noundef nonnull @.str.7, i64 noundef %2) #4
  ret void
}


!llvm.module.flags = !{!0, !1, !2, !3}

!0 = !{i32 1, !"wchar_size", i32 4}
!1 = !{i32 8, !"PIC Level", i32 2}
!2 = !{i32 7, !"uwtable", i32 2}
!3 = !{i32 7, !"frame-pointer", i32 2}
